target datalayout = "e-m:e-p270:32:32-p271:32:32-p272:64:64-i64:64-i128:128-f80:128-n8:16:32:64-S128"
target triple = "x86_64-pc-linux-gnu"

; Function Attrs: mustprogress nounwind uwtable
define linkonce_odr hidden noundef ptr @_ZN5clang6detail19IgnoreExprNodesImplEPNS_4ExprE(ptr noundef %0) #0 comdat {
  %2 = alloca ptr, align 8
  store ptr %0, ptr %2, align 8
  %3 = load ptr, ptr %2, align 8
  ret ptr %3
}

; Function Attrs: mustprogress nounwind uwtable
define linkonce_odr noundef ptr @_ZN5clang6detail19IgnoreExprNodesImplIRFPNS_4ExprES3_EJEEES3_S3_OT_DpOT0_(ptr noundef %0, ptr noundef nonnull %1) #0 comdat {
  %3 = alloca ptr, align 8
  %4 = alloca ptr, align 8
  store ptr %0, ptr %3, align 8
  store ptr %1, ptr %4, align 8
  %5 = load ptr, ptr %4, align 8
  %6 = load ptr, ptr %3, align 8
  %7 = call noundef ptr %5(ptr noundef %6)
  %8 = call noundef ptr @_ZN5clang6detail19IgnoreExprNodesImplEPNS_4ExprE(ptr noundef %7)
  ret ptr %8
}

; Function Attrs: mustprogress nounwind uwtable
define linkonce_odr noundef ptr @_ZN5clang6detail19IgnoreExprNodesImplIRFPNS_4ExprES3_EJS5_EEES3_S3_OT_DpOT0_(ptr noundef %0, ptr noundef nonnull %1, ptr noundef nonnull %2) #0 comdat {
  %4 = alloca ptr, align 8
  %5 = alloca ptr, align 8
  %6 = alloca ptr, align 8
  store ptr %0, ptr %4, align 8
  store ptr %1, ptr %5, align 8
  store ptr %2, ptr %6, align 8
  %7 = load ptr, ptr %5, align 8
  %8 = load ptr, ptr %4, align 8
  %9 = call noundef ptr %7(ptr noundef %8)
  %10 = load ptr, ptr %6, align 8
  %11 = call noundef ptr @_ZN5clang6detail19IgnoreExprNodesImplIRFPNS_4ExprES3_EJEEES3_S3_OT_DpOT0_(ptr noundef %9, ptr noundef nonnull %10)
  ret ptr %11
}

; Function Attrs: mustprogress nounwind uwtable
define linkonce_odr noundef ptr @_ZN5clang15IgnoreExprNodesIJRFPNS_4ExprES2_ES4_EEES2_S2_DpOT_(ptr noundef %0, ptr noundef nonnull %1, ptr noundef nonnull %2) #0 comdat {
  %4 = alloca ptr, align 8
  %5 = alloca ptr, align 8
  %6 = alloca ptr, align 8
  %7 = alloca ptr, align 8
  store ptr %0, ptr %4, align 8
  store ptr %1, ptr %5, align 8
  store ptr %2, ptr %6, align 8
  store ptr null, ptr %7, align 8
  br label %8

8:                                                ; preds = %12, %3
  %9 = load ptr, ptr %4, align 8
  %10 = load ptr, ptr %7, align 8
  %11 = icmp ne ptr %9, %10
  br i1 %11, label %12, label %18

12:                                               ; preds = %8
  %13 = load ptr, ptr %4, align 8
  store ptr %13, ptr %7, align 8
  %14 = load ptr, ptr %4, align 8
  %15 = load ptr, ptr %5, align 8
  %16 = load ptr, ptr %6, align 8
  %17 = call noundef ptr @_ZN5clang6detail19IgnoreExprNodesImplIRFPNS_4ExprES3_EJS5_EEES3_S3_OT_DpOT0_(ptr noundef %14, ptr noundef nonnull %15, ptr noundef nonnull %16)
  store ptr %17, ptr %4, align 8
  br label %8, !llvm.loop !31

18:                                               ; preds = %8
  %19 = load ptr, ptr %4, align 8
  ret ptr %19
}

; Function Attrs: mustprogress nounwind willreturn memory(read) uwtable
define dso_local noundef ptr @_ZN5clang4Expr20IgnoreParenBaseCastsEv(ptr noundef nonnull align 8 dereferenceable(16) %0) #4 align 2 {
  %2 = alloca ptr, align 8
  store ptr %0, ptr %2, align 8
  %3 = load ptr, ptr %2, align 8
  %4 = call noundef ptr @_ZN5clang15IgnoreExprNodesIJRFPNS_4ExprES2_ES4_EEES2_S2_DpOT_(ptr noundef %3, ptr noundef nonnull @_ZN5clang22IgnoreParensSingleStepEPNS_4ExprE, ptr noundef nonnull @_ZN5clang25IgnoreBaseCastsSingleStepEPNS_4ExprE)
  ret ptr %4
}