; Function Attrs: mustprogress nofree norecurse nosync nounwind willreturn memory(read, inaccessiblemem: none) uwtable
define dso_local noundef ptr @_ZN5clang4Expr20IgnoreParenBaseCastsEv(ptr noundef nonnull readonly align 8 dereferenceable(16) %0) local_unnamed_addr #0 align 2 {
  br label %.lr.ph.i

.lr.ph.i:                                         ; preds = %1, %_ZN5clang25IgnoreBaseCastsSingleStepEPNS_4ExprE.exit
  %.079.i = phi ptr [ %.0.i, %_ZN5clang25IgnoreBaseCastsSingleStepEPNS_4ExprE.exit ], [ %0, %1 ]
  %2 = load i8, ptr %.079.i, align 8
  switch i8 %2, label %_ZN5clang22IgnoreParensSingleStepEPNS_4ExprE.exit [
    i8 21, label %3
    i8 4, label %6
    i8 57, label %13
    i8 77, label %27
    i8 19, label %42
  ]

3:                                                ; preds = %.lr.ph.i
  %4 = getelementptr inbounds nuw i8, ptr %.079.i, i64 24
  %5 = load ptr, ptr %4, align 8
  br label %_ZN5clang22IgnoreParensSingleStepEPNS_4ExprE.exit

6:                                                ; preds = %.lr.ph.i
  %7 = load i32, ptr %.079.i, align 8
  %8 = and i32 %7, 8126464
  %9 = icmp eq i32 %8, 3145728
  br i1 %9, label %10, label %_ZN5clang22IgnoreParensSingleStepEPNS_4ExprE.exit

10:                                               ; preds = %6
  %11 = getelementptr inbounds nuw i8, ptr %.079.i, i64 16
  %12 = load ptr, ptr %11, align 8
  br label %_ZN5clang22IgnoreParensSingleStepEPNS_4ExprE.exit

13:                                               ; preds = %.lr.ph.i
  %14 = getelementptr inbounds nuw i8, ptr %.079.i, i64 16
  %15 = load i32, ptr %14, align 8
  %16 = and i32 %15, 1073709056
  %17 = icmp eq i32 %16, 1073709056
  br i1 %17, label %_ZN5clang22IgnoreParensSingleStepEPNS_4ExprE.exit, label %18

18:                                               ; preds = %13
  %19 = getelementptr inbounds i8, ptr %.079.i, i64 32
  %20 = lshr i32 %15, 30
  %.lobit.i.i.i = and i32 %20, 1
  %21 = lshr i32 %15, 15
  %22 = and i32 %21, 32767
  %23 = add nuw nsw i32 %.lobit.i.i.i, %22
  %24 = zext nneg i32 %23 to i64
  %25 = getelementptr inbounds ptr, ptr %19, i64 %24
  %26 = load ptr, ptr %25, align 8
  br label %_ZN5clang22IgnoreParensSingleStepEPNS_4ExprE.exit

27:                                               ; preds = %.lr.ph.i
  %28 = getelementptr inbounds nuw i8, ptr %.079.i, i64 16
  %29 = load ptr, ptr %28, align 8
  %30 = getelementptr inbounds nuw i8, ptr %29, i64 1
  %31 = load i16, ptr %30, align 1
  %32 = and i16 %31, 384
  %.not46.i = icmp eq i16 %32, 0
  br i1 %.not46.i, label %33, label %_ZN5clang22IgnoreParensSingleStepEPNS_4ExprE.exit

33:                                               ; preds = %27
  %34 = getelementptr inbounds nuw i8, ptr %.079.i, i64 48
  %35 = load i8, ptr %34, align 8
  %36 = trunc i8 %35 to i1
  %37 = getelementptr inbounds i8, ptr %.079.i, i64 24
  %38 = load ptr, ptr %37, align 8
  %39 = getelementptr inbounds i8, ptr %.079.i, i64 32
  %40 = load ptr, ptr %39, align 8
  %41 = select i1 %36, ptr %38, ptr %40
  br label %_ZN5clang22IgnoreParensSingleStepEPNS_4ExprE.exit

42:                                               ; preds = %.lr.ph.i
  %43 = load i32, ptr %.079.i, align 8
  %44 = and i32 %43, 12582912
  %or.cond.not.i = icmp eq i32 %44, 12582912
  br i1 %or.cond.not.i, label %_ZN5clang14PredefinedExpr15getFunctionNameEv.exit.i, label %_ZN5clang22IgnoreParensSingleStepEPNS_4ExprE.exit

_ZN5clang14PredefinedExpr15getFunctionNameEv.exit.i: ; preds = %42
  %45 = getelementptr inbounds i8, ptr %.079.i, i64 16
  %46 = load ptr, ptr %45, align 8
  %.not31.i = icmp eq ptr %46, null
  %spec.select.i = select i1 %.not31.i, ptr %.079.i, ptr %46
  br label %_ZN5clang22IgnoreParensSingleStepEPNS_4ExprE.exit

_ZN5clang22IgnoreParensSingleStepEPNS_4ExprE.exit: ; preds = %.lr.ph.i, %3, %6, %10, %13, %18, %27, %33, %42, %_ZN5clang14PredefinedExpr15getFunctionNameEv.exit.i
  %.0.i1 = phi ptr [ %5, %3 ], [ %12, %10 ], [ %26, %18 ], [ %41, %33 ], [ %.079.i, %13 ], [ %.079.i, %42 ], [ %.079.i, %27 ], [ %.079.i, %6 ], [ %.079.i, %.lr.ph.i ], [ %spec.select.i, %_ZN5clang14PredefinedExpr15getFunctionNameEv.exit.i ]
  %47 = load i8, ptr %.0.i1, align 8
  %48 = add i8 %47, -89
  %spec.select.i.i.i.i.i.i.i.i.i = icmp ult i8 %48, -10
  br i1 %spec.select.i.i.i.i.i.i.i.i.i, label %_ZN5clang25IgnoreBaseCastsSingleStepEPNS_4ExprE.exit, label %49

49:                                               ; preds = %_ZN5clang22IgnoreParensSingleStepEPNS_4ExprE.exit
  %50 = load i32, ptr %.0.i1, align 8
  %51 = lshr i32 %50, 18
  %52 = and i32 %51, 127
  switch i32 %52, label %_ZN5clang25IgnoreBaseCastsSingleStepEPNS_4ExprE.exit [
    i32 7, label %53
    i32 8, label %53
    i32 5, label %53
  ]

53:                                               ; preds = %49, %49, %49
  %54 = getelementptr inbounds nuw i8, ptr %.0.i1, i64 16
  %55 = load ptr, ptr %54, align 8
  br label %_ZN5clang25IgnoreBaseCastsSingleStepEPNS_4ExprE.exit

_ZN5clang25IgnoreBaseCastsSingleStepEPNS_4ExprE.exit: ; preds = %_ZN5clang22IgnoreParensSingleStepEPNS_4ExprE.exit, %49, %53
  %.0.i = phi ptr [ %55, %53 ], [ %.0.i1, %_ZN5clang22IgnoreParensSingleStepEPNS_4ExprE.exit ], [ %.0.i1, %49 ]
  %.not.i = icmp eq ptr %.0.i, %.079.i
  br i1 %.not.i, label %_ZN5clang15IgnoreExprNodesIJRFPNS_4ExprES2_ES4_EEES2_S2_DpOT_.exit, label %.lr.ph.i, !llvm.loop !97

_ZN5clang15IgnoreExprNodesIJRFPNS_4ExprES2_ES4_EEES2_S2_DpOT_.exit: ; preds = %_ZN5clang25IgnoreBaseCastsSingleStepEPNS_4ExprE.exit
  ret ptr %.0.i
}